target datalayout = "e-m:e-p270:32:32-p271:32:32-p272:64:64-i64:64-i128:128-f80:128-n8:16:32:64-S128"
target triple = "x86_64-pc-linux-gnu"

%class.SignatureStream = type { ptr, i32, i32, i32, i32, i8, i32, ptr, ptr }
%class.Symbol = type { i32, i16, [2 x i8] }

@tty = external global ptr, align 8

; Function Attrs: mustprogress nounwind uwtable
define linkonce_odr hidden noundef ptr @_ZNK6Symbol5bytesEv(ptr noundef nonnull align 4 dereferenceable(8) %0) #1 comdat align 2 {
  %2 = alloca ptr, align 8
  store ptr %0, ptr %2, align 8
  %3 = load ptr, ptr %2, align 8
  %4 = call noundef ptr @_ZNK6Symbol4baseEv(ptr noundef nonnull align 4 dereferenceable(8) %3)
  ret ptr %4
}

; Function Attrs: mustprogress nounwind uwtable
define linkonce_odr hidden noundef ptr @_ZNK6Symbol4baseEv(ptr noundef nonnull align 4 dereferenceable(8) %0) #1 comdat align 2 {
  %2 = alloca ptr, align 8
  store ptr %0, ptr %2, align 8
  %3 = load ptr, ptr %2, align 8
  %4 = getelementptr inbounds %class.Symbol, ptr %3, i32 0, i32 2
  %5 = getelementptr inbounds [2 x i8], ptr %4, i64 0, i64 0
  ret ptr %5
}

; Function Attrs: mustprogress nounwind uwtable
define linkonce_odr hidden noundef i32 @_ZN15SignatureStream19array_prefix_lengthEv(ptr noundef nonnull align 8 dereferenceable(48) %0) #1 comdat align 2 {
  %2 = alloca ptr, align 8
  store ptr %0, ptr %2, align 8
  %3 = load ptr, ptr %2, align 8
  %4 = getelementptr inbounds %class.SignatureStream, ptr %3, i32 0, i32 5
  %5 = load i8, ptr %4, align 8
  %6 = zext i8 %5 to i32
  %7 = icmp eq i32 %6, 13
  br i1 %7, label %8, label %11

8:                                                ; preds = %1
  %9 = getelementptr inbounds %class.SignatureStream, ptr %3, i32 0, i32 4
  %10 = load i32, ptr %9, align 4
  br label %12

11:                                               ; preds = %1
  br label %12

12:                                               ; preds = %11, %8
  %13 = phi i32 [ %10, %8 ], [ 0, %11 ]
  ret i32 %13
}

; Function Attrs: mustprogress nounwind uwtable
define linkonce_odr hidden noundef zeroext i1 @_ZNK15SignatureStream8is_arrayEv(ptr noundef nonnull align 8 dereferenceable(48) %0) #1 comdat align 2 {
  %2 = alloca ptr, align 8
  store ptr %0, ptr %2, align 8
  %3 = load ptr, ptr %2, align 8
  %4 = getelementptr inbounds %class.SignatureStream, ptr %3, i32 0, i32 5
  %5 = load i8, ptr %4, align 8
  %6 = zext i8 %5 to i32
  %7 = icmp eq i32 %6, 13
  ret i1 %7
}

; Function Attrs: mustprogress nounwind uwtable
define linkonce_odr hidden noundef ptr @_ZNK15SignatureStream9raw_bytesEv(ptr noundef nonnull align 8 dereferenceable(48) %0) #1 comdat align 2 {
  %2 = alloca ptr, align 8
  store ptr %0, ptr %2, align 8
  %3 = load ptr, ptr %2, align 8
  %4 = getelementptr inbounds %class.SignatureStream, ptr %3, i32 0, i32 0
  %5 = load ptr, ptr %4, align 8
  %6 = call noundef ptr @_ZNK6Symbol5bytesEv(ptr noundef nonnull align 4 dereferenceable(8) %5)
  %7 = getelementptr inbounds %class.SignatureStream, ptr %3, i32 0, i32 1
  %8 = load i32, ptr %7, align 8
  %9 = sext i32 %8 to i64
  %10 = getelementptr inbounds i8, ptr %6, i64 %9
  ret ptr %10
}

; Function Attrs: mustprogress nounwind uwtable
define linkonce_odr hidden noundef zeroext i1 @_ZNK15SignatureStream14at_return_typeEv(ptr noundef nonnull align 8 dereferenceable(48) %0) #1 comdat align 2 {
  %2 = alloca ptr, align 8
  store ptr %0, ptr %2, align 8
  %3 = load ptr, ptr %2, align 8
  %4 = getelementptr inbounds %class.SignatureStream, ptr %3, i32 0, i32 6
  %5 = load i32, ptr %4, align 4
  %6 = icmp eq i32 %5, 3
  ret i1 %6
}

; Function Attrs: mustprogress nounwind uwtable
define linkonce_odr hidden noundef zeroext i1 @_ZNK15SignatureStream7is_doneEv(ptr noundef nonnull align 8 dereferenceable(48) %0) #1 comdat align 2 {
  %2 = alloca ptr, align 8
  store ptr %0, ptr %2, align 8
  %3 = load ptr, ptr %2, align 8
  %4 = getelementptr inbounds %class.SignatureStream, ptr %3, i32 0, i32 6
  %5 = load i32, ptr %4, align 4
  %6 = icmp slt i32 %5, 0
  ret i1 %6
}

; Function Attrs: mustprogress nounwind uwtable
define linkonce_odr hidden noundef signext i8 @_ZNK6Symbol7char_atEi(ptr noundef nonnull align 4 dereferenceable(8) %0, i32 noundef %1) #1 comdat align 2 {
  %3 = alloca ptr, align 8
  %4 = alloca i32, align 4
  store ptr %0, ptr %3, align 8
  store i32 %1, ptr %4, align 4
  %5 = load ptr, ptr %3, align 8
  %6 = call noundef ptr @_ZNK6Symbol4baseEv(ptr noundef nonnull align 4 dereferenceable(8) %5)
  %7 = load i32, ptr %4, align 4
  %8 = sext i32 %7 to i64
  %9 = getelementptr inbounds i8, ptr %6, i64 %8
  %10 = load i8, ptr %9, align 1
  ret i8 %10
}

; Function Attrs: mustprogress nounwind uwtable
define hidden void @_ZN13MethodHandles32print_as_basic_type_signature_onEP12outputStreamP6Symbol(ptr noundef %0, ptr noundef %1) #1 align 2 {
  %3 = alloca ptr, align 8
  %4 = alloca ptr, align 8
  %5 = alloca i8, align 1
  %6 = alloca i8, align 1
  %7 = alloca %class.SignatureStream, align 8
  %8 = alloca ptr, align 8
  store ptr %0, ptr %3, align 8
  store ptr %1, ptr %4, align 8
  %9 = load ptr, ptr %3, align 8
  %10 = icmp ne ptr %9, null
  br i1 %10, label %11, label %13

11:                                               ; preds = %2
  %12 = load ptr, ptr %3, align 8
  br label %15

13:                                               ; preds = %2
  %14 = load ptr, ptr @tty, align 8
  br label %15

15:                                               ; preds = %13, %11
  %16 = phi ptr [ %12, %11 ], [ %14, %13 ]
  store ptr %16, ptr %3, align 8
  store i8 0, ptr %5, align 1
  %17 = load ptr, ptr %4, align 8
  %18 = call noundef signext i8 @_ZNK6Symbol7char_atEi(ptr noundef nonnull align 4 dereferenceable(8) %17, i32 noundef 0)
  %19 = sext i8 %18 to i32
  %20 = icmp eq i32 %19, 40
  %21 = zext i1 %20 to i8
  store i8 %21, ptr %6, align 1
  %22 = load i8, ptr %6, align 1
  %23 = trunc i8 %22 to i1
  br i1 %23, label %24, label %26

24:                                               ; preds = %15
  %25 = load ptr, ptr %3, align 8
  call void @_ZN12outputStream3putEc(ptr noundef nonnull align 8 dereferenceable(56) %25, i8 noundef signext 40)
  br label %26

26:                                               ; preds = %24, %15
  %27 = load ptr, ptr %4, align 8
  %28 = load i8, ptr %6, align 1
  %29 = trunc i8 %28 to i1
  call void @_ZN15SignatureStreamC1EPK6Symbolb(ptr noundef nonnull align 8 dereferenceable(48) %7, ptr noundef %27, i1 noundef zeroext %29)
  br label %30

30:                                               ; preds = %65, %26
  %31 = call noundef zeroext i1 @_ZNK15SignatureStream7is_doneEv(ptr noundef nonnull align 8 dereferenceable(48) %7)
  %32 = xor i1 %31, true
  br i1 %32, label %34, label %33

33:                                               ; preds = %30
  call void @_ZN15SignatureStreamD1Ev(ptr noundef nonnull align 8 dereferenceable(48) %7) #10
  br label %66

34:                                               ; preds = %30
  %35 = call noundef zeroext i1 @_ZNK15SignatureStream14at_return_typeEv(ptr noundef nonnull align 8 dereferenceable(48) %7)
  br i1 %35, label %36, label %38

36:                                               ; preds = %34
  %37 = load ptr, ptr %3, align 8
  call void @_ZN12outputStream3putEc(ptr noundef nonnull align 8 dereferenceable(56) %37, i8 noundef signext 41)
  br label %44

38:                                               ; preds = %34
  %39 = load i8, ptr %5, align 1
  %40 = trunc i8 %39 to i1
  br i1 %40, label %41, label %43

41:                                               ; preds = %38
  %42 = load ptr, ptr %3, align 8
  call void @_ZN12outputStream3putEc(ptr noundef nonnull align 8 dereferenceable(56) %42, i8 noundef signext 44)
  br label %43

43:                                               ; preds = %41, %38
  br label %44

44:                                               ; preds = %43, %36
  %45 = call noundef ptr @_ZNK15SignatureStream9raw_bytesEv(ptr noundef nonnull align 8 dereferenceable(48) %7)
  store ptr %45, ptr %8, align 8
  %46 = call noundef zeroext i1 @_ZNK15SignatureStream8is_arrayEv(ptr noundef nonnull align 8 dereferenceable(48) %7)
  br i1 %46, label %47, label %59

47:                                               ; preds = %44
  %48 = load ptr, ptr %3, align 8
  call void @_ZN12outputStream3putEc(ptr noundef nonnull align 8 dereferenceable(56) %48, i8 noundef signext 91)
  %49 = call noundef i32 @_ZN15SignatureStream19array_prefix_lengthEv(ptr noundef nonnull align 8 dereferenceable(48) %7)
  %50 = icmp eq i32 %49, 1
  br i1 %50, label %51, label %56

51:                                               ; preds = %47
  %52 = load ptr, ptr %3, align 8
  %53 = load ptr, ptr %8, align 8
  %54 = getelementptr inbounds i8, ptr %53, i64 1
  %55 = load i8, ptr %54, align 1
  call void @_ZN12outputStream3putEc(ptr noundef nonnull align 8 dereferenceable(56) %52, i8 noundef signext %55)
  br label %58

56:                                               ; preds = %47
  %57 = load ptr, ptr %3, align 8
  call void @_ZN12outputStream3putEc(ptr noundef nonnull align 8 dereferenceable(56) %57, i8 noundef signext 76)
  br label %58

58:                                               ; preds = %56, %51
  br label %64

59:                                               ; preds = %44
  %60 = load ptr, ptr %3, align 8
  %61 = load ptr, ptr %8, align 8
  %62 = getelementptr inbounds i8, ptr %61, i64 0
  %63 = load i8, ptr %62, align 1
  call void @_ZN12outputStream3putEc(ptr noundef nonnull align 8 dereferenceable(56) %60, i8 noundef signext %63)
  br label %64

64:                                               ; preds = %59, %58
  br label %65

65:                                               ; preds = %64
  call void @_ZN15SignatureStream4nextEv(ptr noundef nonnull align 8 dereferenceable(48) %7)
  br label %30, !llvm.loop !12

66:                                               ; preds = %33
  ret void
}