; Function Attrs: mustprogress nounwind uwtable
define hidden void @_ZN13MethodHandles32print_as_basic_type_signature_onEP12outputStreamP6Symbol(ptr noundef %0, ptr noundef %1) local_unnamed_addr #0 align 2 {
  %3 = alloca %class.SignatureStream, align 8
  %.not = icmp eq ptr %0, null
  %4 = load ptr, ptr @tty, align 8
  %5 = select i1 %.not, ptr %4, ptr %0
  %6 = getelementptr inbounds i8, ptr %1, i64 6
  %7 = load i8, ptr %6, align 1
  %8 = icmp eq i8 %7, 40
  br i1 %8, label %9, label %10

9:                                                ; preds = %2
  tail call void @_ZN12outputStream3putEc(ptr noundef nonnull align 8 dereferenceable(56) %5, i8 noundef signext 40) #13
  br label %10

10:                                               ; preds = %9, %2
  call void @_ZN15SignatureStreamC1EPK6Symbolb(ptr noundef nonnull align 8 dereferenceable(48) %3, ptr noundef nonnull %1, i1 noundef zeroext %8) #13
  %11 = getelementptr inbounds i8, ptr %3, i64 28
  %12 = load i32, ptr %11, align 4
  %13 = icmp slt i32 %12, 0
  br i1 %13, label %._crit_edge, label %.lr.ph

.lr.ph:                                           ; preds = %10
  %14 = getelementptr inbounds i8, ptr %3, i64 8
  %15 = getelementptr inbounds i8, ptr %3, i64 24
  %16 = getelementptr inbounds i8, ptr %3, i64 20
  br label %17

._crit_edge:                                      ; preds = %38, %10
  call void @_ZN15SignatureStreamD1Ev(ptr noundef nonnull align 8 dereferenceable(48) %3) #13
  ret void

17:                                               ; preds = %.lr.ph, %38
  %18 = phi i32 [ %12, %.lr.ph ], [ %39, %38 ]
  %19 = icmp eq i32 %18, 3
  br i1 %19, label %20, label %21

20:                                               ; preds = %17
  call void @_ZN12outputStream3putEc(ptr noundef nonnull align 8 dereferenceable(56) %5, i8 noundef signext 41) #13
  br label %21

21:                                               ; preds = %17, %20
  %22 = load ptr, ptr %3, align 8
  %23 = getelementptr inbounds i8, ptr %22, i64 6
  %24 = load i32, ptr %14, align 8
  %25 = sext i32 %24 to i64
  %26 = getelementptr inbounds i8, ptr %23, i64 %25
  %27 = load i8, ptr %15, align 8
  %28 = icmp eq i8 %27, 13
  br i1 %28, label %29, label %.sink.split

29:                                               ; preds = %21
  call void @_ZN12outputStream3putEc(ptr noundef nonnull align 8 dereferenceable(56) %5, i8 noundef signext 91) #13
  %30 = load i8, ptr %15, align 8
  %31 = icmp eq i8 %30, 13
  %32 = load i32, ptr %16, align 4
  %33 = icmp eq i32 %32, 1
  %34 = select i1 %31, i1 %33, i1 false
  br i1 %34, label %35, label %38

35:                                               ; preds = %29
  %36 = getelementptr inbounds i8, ptr %26, i64 1
  br label %.sink.split

.sink.split:                                      ; preds = %21, %35
  %.sink15 = phi ptr [ %36, %35 ], [ %26, %21 ]
  %37 = load i8, ptr %.sink15, align 1
  br label %38

38:                                               ; preds = %.sink.split, %29
  %.sink = phi i8 [ 76, %29 ], [ %37, %.sink.split ]
  call void @_ZN12outputStream3putEc(ptr noundef nonnull align 8 dereferenceable(56) %5, i8 noundef signext %.sink) #13
  call void @_ZN15SignatureStream4nextEv(ptr noundef nonnull align 8 dereferenceable(48) %3) #13
  %39 = load i32, ptr %11, align 4
  %40 = icmp slt i32 %39, 0
  br i1 %40, label %._crit_edge, label %17, !llvm.loop !12
}